; Function Attrs: mustprogress nounwind uwtable
define noundef nonnull align 8 dereferenceable(8) ptr @_ZN3gmx22CommandLineHelpContextaSEOS0_(ptr noundef nonnull returned align 8 dereferenceable(8) %0, ptr noundef nonnull align 8 captures(none) dereferenceable(8) %1) local_unnamed_addr #5 align 2 personality ptr @__gxx_personality_v0 {
  %3 = load ptr, ptr %1, align 8, !tbaa !27
  store ptr null, ptr %1, align 8, !tbaa !27
  %4 = load ptr, ptr %0, align 8, !tbaa !27
  store ptr %3, ptr %0, align 8, !tbaa !27
  %.not.i.i.i.i = icmp eq ptr %4, null
  br i1 %.not.i.i.i.i, label %_ZNSt10unique_ptrIN3gmx22CommandLineHelpContext4ImplESt14default_deleteIS2_EEaSEOS5_.exit, label %5

5:                                                ; preds = %2
  %6 = getelementptr inbounds nuw i8, ptr %4, i64 8
  %7 = load ptr, ptr %6, align 8, !tbaa !29
  %8 = getelementptr inbounds nuw i8, ptr %4, i64 24
  %9 = icmp eq ptr %7, %8
  br i1 %9, label %_ZNKSt7__cxx1112basic_stringIcSt11char_traitsIcESaIcEE11_M_is_localEv.exit.thread.i.i.i.i.i.i.i.i, label %_ZNKSt7__cxx1112basic_stringIcSt11char_traitsIcESaIcEE11_M_is_localEv.exit.i.i.i.i.i.i.i.i

_ZNKSt7__cxx1112basic_stringIcSt11char_traitsIcESaIcEE11_M_is_localEv.exit.thread.i.i.i.i.i.i.i.i: ; preds = %5
  %10 = getelementptr inbounds nuw i8, ptr %4, i64 16
  %11 = load i64, ptr %10, align 8, !tbaa !10
  %12 = icmp ult i64 %11, 16
  tail call void @llvm.assume(i1 %12)
  br label %_ZNKSt14default_deleteIN3gmx22CommandLineHelpContext4ImplEEclEPS2_.exit.i.i.i.i

_ZNKSt7__cxx1112basic_stringIcSt11char_traitsIcESaIcEE11_M_is_localEv.exit.i.i.i.i.i.i.i.i: ; preds = %5
  %13 = load i64, ptr %8, align 8, !tbaa !13
  %14 = add i64 %13, 1
  tail call void @_ZdlPvm(ptr noundef %7, i64 noundef %14) #20
  br label %_ZNKSt14default_deleteIN3gmx22CommandLineHelpContext4ImplEEclEPS2_.exit.i.i.i.i

_ZNKSt14default_deleteIN3gmx22CommandLineHelpContext4ImplEEclEPS2_.exit.i.i.i.i: ; preds = %_ZNKSt7__cxx1112basic_stringIcSt11char_traitsIcESaIcEE11_M_is_localEv.exit.i.i.i.i.i.i.i.i, %_ZNKSt7__cxx1112basic_stringIcSt11char_traitsIcESaIcEE11_M_is_localEv.exit.thread.i.i.i.i.i.i.i.i
  tail call void @_ZN3gmx17HelpWriterContextD1Ev(ptr noundef nonnull align 8 dereferenceable(49) %4) #19
  tail call void @_ZdlPvm(ptr noundef nonnull %4, i64 noundef 56) #20
  br label %_ZNSt10unique_ptrIN3gmx22CommandLineHelpContext4ImplESt14default_deleteIS2_EEaSEOS5_.exit

_ZNSt10unique_ptrIN3gmx22CommandLineHelpContext4ImplESt14default_deleteIS2_EEaSEOS5_.exit: ; preds = %2, %_ZNKSt14default_deleteIN3gmx22CommandLineHelpContext4ImplEEclEPS2_.exit.i.i.i.i
  ret ptr %0
}